target datalayout = "e-m:e-p270:32:32-p271:32:32-p272:64:64-i64:64-i128:128-f80:128-n8:16:32:64-S128"
target triple = "x86_64-pc-linux-gnu"

%struct.AVRational = type { i32, i32 }
%struct.MpegEncContext = type { ptr, i32, i32, i32, [12 x i32], i32, %struct.ScanTable, %struct.ScanTable, [64 x i8], [64 x i8], ptr, ptr, i32, i32, i32, i32, i32, i32, i32, i32, i32, i32, i32, i32, i32, i32, i32, i32, i32, i32, i32, i32, i64, i64, ptr, %struct.BufferPoolContext, i32, i32, %union.anon, i32, %struct.MPVWorkPicture, %struct.MPVWorkPicture, %struct.MPVWorkPicture, i32, [3 x i32], ptr, [3 x ptr], ptr, ptr, ptr, ptr, ptr, ptr, [3 x ptr], i32, ptr, ptr, ptr, ptr, %struct.ScratchpadContext, i32, i32, i32, i32, i32, i32, %struct.BlockDSPContext, %struct.H264ChromaContext, %struct.HpelDSPContext, %struct.IDCTDSPContext, %struct.QpelDSPContext, %struct.VideoDSPContext, %struct.H263DSPContext, ptr, [2 x [2 x ptr]], i32, i32, [2 x [4 x [2 x i32]]], [2 x [2 x i32]], [2 x [2 x [2 x i32]]], [2 x [64 x i16]], i32, i32, i32, i32, i32, [6 x i32], [6 x i32], [3 x ptr], ptr, [64 x i16], [64 x i16], [64 x i16], [64 x i16], i32, i32, %struct.GetBitContext, i32, i32, i32, i32, i32, i32, i32, i32, i32, i32, i32, i32, i32, i32, i32, i64, i64, i16, i16, i16, i16, i32, i32, i32, i32, i32, i32, i32, i32, i32, [3 x i32], i32, i32, i32, i32, i32, i32, %struct.GetBitContext, i32, [2 x [2 x i32]], i32, i32, i32, i32, i32, i32, i32, i32, i32, i32, i32, i32, i32, i32, [2 x i32], i32, i32, ptr, ptr, ptr, ptr, ptr, i32, i32, %struct.ERContext }
%struct.ScanTable = type { ptr, [64 x i8], [64 x i8] }
%struct.BufferPoolContext = type { ptr, ptr, ptr, ptr, ptr, i32, i32, i32 }
%union.anon = type { [32 x ptr] }
%struct.MPVWorkPicture = type { [3 x ptr], [3 x i64], ptr, ptr, [2 x ptr], ptr, ptr, [2 x ptr], i32 }
%struct.ScratchpadContext = type { ptr, ptr, %union.anon.0, i32 }
%union.anon.0 = type { ptr }
%struct.BlockDSPContext = type { ptr, ptr, [2 x ptr] }
%struct.H264ChromaContext = type { [4 x ptr], [4 x ptr] }
%struct.HpelDSPContext = type { [4 x [4 x ptr]], [4 x [4 x ptr]], [4 x [4 x ptr]], [4 x ptr] }
%struct.IDCTDSPContext = type { ptr, ptr, ptr, ptr, ptr, ptr, [64 x i8], i32, i32 }
%struct.QpelDSPContext = type { [2 x [16 x ptr]], [2 x [16 x ptr]], [2 x [16 x ptr]] }
%struct.VideoDSPContext = type { ptr, ptr }
%struct.H263DSPContext = type { ptr, ptr }
%struct.GetBitContext = type { ptr, ptr, i32, i32, i32 }
%struct.ERContext = type { ptr, ptr, i32, ptr, i32, i32, i32, i64, i64, i32, i32, ptr, ptr, [3 x ptr], ptr, ptr, [2 x [4 x [2 x i32]]], %struct.ERPicture, %struct.ERPicture, %struct.ERPicture, [2 x ptr], [2 x ptr], i16, i16, i32, i32, ptr, ptr }
%struct.ERPicture = type { ptr, ptr, ptr, [2 x ptr], [2 x ptr], ptr, i32 }
%struct.AVCodecContext = type { ptr, i32, i32, ptr, i32, i32, ptr, ptr, ptr, i64, i32, i32, ptr, i32, %struct.AVRational, %struct.AVRational, %struct.AVRational, i32, i32, i32, i32, i32, %struct.AVRational, i32, i32, i32, i32, i32, i32, i32, i32, i32, i32, i32, ptr, ptr, i32, float, float, float, float, float, float, float, float, float, i32, i32, i32, i32, i32, i32, i32, i32, i32, i32, i32, i32, ptr, ptr, ptr, i32, i32, i32, i32, i32, i32, i32, i32, i32, i32, %struct.AVChannelLayout, i32, i32, i32, i32, i32, i32, i32, i32, ptr, i32, i32, i32, float, float, i32, i32, i32, i32, i32, ptr, i64, i64, float, float, i32, i32, ptr, ptr, i32, i32, i32, i32, i32, ptr, ptr, ptr, ptr, i32, i32, [8 x i64], i32, i32, i32, i32, i32, i32, i32, ptr, ptr, i32, i32, i32, i32, i32, i32, i32, i32, i32, i32, ptr, ptr, i32, i32, ptr, ptr, ptr, ptr, i32, i32, i64, i32, i32, i64, ptr, i64, ptr, i32, ptr, i32 }
%struct.AVChannelLayout = type { i32, i32, %union.anon.1, ptr }
%union.anon.1 = type { i64 }

@.str = private unnamed_addr constant [49 x i8] c"qp:%d %c size:%d rnd:%d%s%s%s%s%s%s%s%s%s %d/%d\0A\00", align 1
@.str.1 = private unnamed_addr constant [4 x i8] c" AP\00", align 1
@.str.2 = private unnamed_addr constant [1 x i8] zeroinitializer, align 1
@.str.3 = private unnamed_addr constant [5 x i8] c" UMV\00", align 1
@.str.4 = private unnamed_addr constant [6 x i8] c" LONG\00", align 1
@.str.5 = private unnamed_addr constant [3 x i8] c" +\00", align 1
@.str.6 = private unnamed_addr constant [5 x i8] c" AIC\00", align 1
@.str.7 = private unnamed_addr constant [5 x i8] c" AIV\00", align 1
@.str.8 = private unnamed_addr constant [4 x i8] c" MQ\00", align 1
@.str.9 = private unnamed_addr constant [6 x i8] c" LOOP\00", align 1
@.str.10 = private unnamed_addr constant [4 x i8] c" SS\00", align 1

; Function Attrs: nounwind uwtable
define void @ff_h263_show_pict_info(ptr noundef %0) #0 {
  %2 = alloca ptr, align 8
  store ptr %0, ptr %2, align 8, !tbaa !4
  %3 = load ptr, ptr %2, align 8, !tbaa !4
  %4 = getelementptr inbounds nuw %struct.MpegEncContext, ptr %3, i32 0, i32 10
  %5 = load ptr, ptr %4, align 8, !tbaa !9
  %6 = getelementptr inbounds nuw %struct.AVCodecContext, ptr %5, i32 0, i32 103
  %7 = load i32, ptr %6, align 4, !tbaa !38
  %8 = and i32 %7, 1
  %9 = icmp ne i32 %8, 0
  br i1 %9, label %10, label %87

10:                                               ; preds = %1
  %11 = load ptr, ptr %2, align 8, !tbaa !4
  %12 = getelementptr inbounds nuw %struct.MpegEncContext, ptr %11, i32 0, i32 10
  %13 = load ptr, ptr %12, align 8, !tbaa !9
  %14 = load ptr, ptr %2, align 8, !tbaa !4
  %15 = getelementptr inbounds nuw %struct.MpegEncContext, ptr %14, i32 0, i32 60
  %16 = load i32, ptr %15, align 8, !tbaa !52
  %17 = load ptr, ptr %2, align 8, !tbaa !4
  %18 = getelementptr inbounds nuw %struct.MpegEncContext, ptr %17, i32 0, i32 62
  %19 = load i32, ptr %18, align 8, !tbaa !53
  %20 = call signext i8 @av_get_picture_type_char(i32 noundef %19)
  %21 = sext i8 %20 to i32
  %22 = load ptr, ptr %2, align 8, !tbaa !4
  %23 = getelementptr inbounds nuw %struct.MpegEncContext, ptr %22, i32 0, i32 134
  %24 = getelementptr inbounds nuw %struct.GetBitContext, ptr %23, i32 0, i32 3
  %25 = load i32, ptr %24, align 4, !tbaa !54
  %26 = load ptr, ptr %2, align 8, !tbaa !4
  %27 = getelementptr inbounds nuw %struct.MpegEncContext, ptr %26, i32 0, i32 81
  %28 = load i32, ptr %27, align 8, !tbaa !55
  %29 = sub nsw i32 1, %28
  %30 = load ptr, ptr %2, align 8, !tbaa !4
  %31 = getelementptr inbounds nuw %struct.MpegEncContext, ptr %30, i32 0, i32 99
  %32 = load i32, ptr %31, align 8, !tbaa !56
  %33 = icmp ne i32 %32, 0
  %34 = select i1 %33, ptr @.str.1, ptr @.str.2
  %35 = load ptr, ptr %2, align 8, !tbaa !4
  %36 = getelementptr inbounds nuw %struct.MpegEncContext, ptr %35, i32 0, i32 101
  %37 = load i32, ptr %36, align 8, !tbaa !57
  %38 = icmp ne i32 %37, 0
  %39 = select i1 %38, ptr @.str.3, ptr @.str.2
  %40 = load ptr, ptr %2, align 8, !tbaa !4
  %41 = getelementptr inbounds nuw %struct.MpegEncContext, ptr %40, i32 0, i32 65
  %42 = load i32, ptr %41, align 4, !tbaa !58
  %43 = icmp ne i32 %42, 0
  %44 = select i1 %43, ptr @.str.4, ptr @.str.2
  %45 = load ptr, ptr %2, align 8, !tbaa !4
  %46 = getelementptr inbounds nuw %struct.MpegEncContext, ptr %45, i32 0, i32 17
  %47 = load i32, ptr %46, align 4, !tbaa !59
  %48 = icmp ne i32 %47, 0
  %49 = select i1 %48, ptr @.str.5, ptr @.str.2
  %50 = load ptr, ptr %2, align 8, !tbaa !4
  %51 = getelementptr inbounds nuw %struct.MpegEncContext, ptr %50, i32 0, i32 5
  %52 = load i32, ptr %51, align 4, !tbaa !60
  %53 = icmp ne i32 %52, 0
  %54 = select i1 %53, ptr @.str.6, ptr @.str.2
  %55 = load ptr, ptr %2, align 8, !tbaa !4
  %56 = getelementptr inbounds nuw %struct.MpegEncContext, ptr %55, i32 0, i32 104
  %57 = load i32, ptr %56, align 4, !tbaa !61
  %58 = icmp ne i32 %57, 0
  %59 = select i1 %58, ptr @.str.7, ptr @.str.2
  %60 = load ptr, ptr %2, align 8, !tbaa !4
  %61 = getelementptr inbounds nuw %struct.MpegEncContext, ptr %60, i32 0, i32 105
  %62 = load i32, ptr %61, align 8, !tbaa !62
  %63 = icmp ne i32 %62, 0
  %64 = select i1 %63, ptr @.str.8, ptr @.str.2
  %65 = load ptr, ptr %2, align 8, !tbaa !4
  %66 = getelementptr inbounds nuw %struct.MpegEncContext, ptr %65, i32 0, i32 106
  %67 = load i32, ptr %66, align 4, !tbaa !63
  %68 = icmp ne i32 %67, 0
  %69 = select i1 %68, ptr @.str.9, ptr @.str.2
  %70 = load ptr, ptr %2, align 8, !tbaa !4
  %71 = getelementptr inbounds nuw %struct.MpegEncContext, ptr %70, i32 0, i32 103
  %72 = load i32, ptr %71, align 8, !tbaa !64
  %73 = icmp ne i32 %72, 0
  %74 = select i1 %73, ptr @.str.10, ptr @.str.2
  %75 = load ptr, ptr %2, align 8, !tbaa !4
  %76 = getelementptr inbounds nuw %struct.MpegEncContext, ptr %75, i32 0, i32 10
  %77 = load ptr, ptr %76, align 8, !tbaa !9
  %78 = getelementptr inbounds nuw %struct.AVCodecContext, ptr %77, i32 0, i32 16
  %79 = getelementptr inbounds nuw %struct.AVRational, ptr %78, i32 0, i32 0
  %80 = load i32, ptr %79, align 4, !tbaa !65
  %81 = load ptr, ptr %2, align 8, !tbaa !4
  %82 = getelementptr inbounds nuw %struct.MpegEncContext, ptr %81, i32 0, i32 10
  %83 = load ptr, ptr %82, align 8, !tbaa !9
  %84 = getelementptr inbounds nuw %struct.AVCodecContext, ptr %83, i32 0, i32 16
  %85 = getelementptr inbounds nuw %struct.AVRational, ptr %84, i32 0, i32 1
  %86 = load i32, ptr %85, align 4, !tbaa !66
  call void (ptr, i32, ptr, ...) @av_log(ptr noundef %13, i32 noundef 48, ptr noundef @.str, i32 noundef %16, i32 noundef %21, i32 noundef %25, i32 noundef %29, ptr noundef %34, ptr noundef %39, ptr noundef %44, ptr noundef %49, ptr noundef %54, ptr noundef %59, ptr noundef %64, ptr noundef %69, ptr noundef %74, i32 noundef %80, i32 noundef %86)
  br label %87

87:                                               ; preds = %10, %1
  ret void
}