; Function Attrs: nounwind uwtable
define void @ff_h263_show_pict_info(ptr noundef readonly captures(none) %0) local_unnamed_addr #0 {
  %2 = getelementptr inbounds nuw i8, ptr %0, i64 472
  %3 = load ptr, ptr %2, align 8, !tbaa !4
  %4 = getelementptr inbounds nuw i8, ptr %3, i64 524
  %5 = load i32, ptr %4, align 4, !tbaa !36
  %6 = and i32 %5, 1
  %.not = icmp eq i32 %6, 0
  br i1 %.not, label %51, label %7

7:                                                ; preds = %1
  %8 = getelementptr inbounds nuw i8, ptr %0, i64 1472
  %9 = load i32, ptr %8, align 8, !tbaa !50
  %10 = getelementptr inbounds nuw i8, ptr %0, i64 1480
  %11 = load i32, ptr %10, align 8, !tbaa !51
  %12 = tail call signext i8 @av_get_picture_type_char(i32 noundef %11) #12
  %13 = sext i8 %12 to i32
  %14 = getelementptr inbounds nuw i8, ptr %0, i64 4180
  %15 = load i32, ptr %14, align 4, !tbaa !52
  %16 = getelementptr inbounds nuw i8, ptr %0, i64 3344
  %17 = load i32, ptr %16, align 8, !tbaa !53
  %18 = sub nsw i32 1, %17
  %19 = getelementptr inbounds nuw i8, ptr %0, i64 4008
  %20 = load i32, ptr %19, align 8, !tbaa !54
  %.not17 = icmp eq i32 %20, 0
  %21 = select i1 %.not17, ptr @.str.2, ptr @.str.1
  %22 = getelementptr inbounds nuw i8, ptr %0, i64 4016
  %23 = load i32, ptr %22, align 8, !tbaa !55
  %.not18 = icmp eq i32 %23, 0
  %24 = select i1 %.not18, ptr @.str.2, ptr @.str.3
  %25 = getelementptr inbounds nuw i8, ptr %0, i64 1492
  %26 = load i32, ptr %25, align 4, !tbaa !56
  %.not19 = icmp eq i32 %26, 0
  %27 = select i1 %.not19, ptr @.str.2, ptr @.str.4
  %28 = getelementptr inbounds nuw i8, ptr %0, i64 508
  %29 = load i32, ptr %28, align 4, !tbaa !57
  %.not20 = icmp eq i32 %29, 0
  %30 = select i1 %.not20, ptr @.str.2, ptr @.str.5
  %31 = getelementptr inbounds nuw i8, ptr %0, i64 68
  %32 = load i32, ptr %31, align 4, !tbaa !58
  %.not21 = icmp eq i32 %32, 0
  %33 = select i1 %.not21, ptr @.str.2, ptr @.str.6
  %34 = getelementptr inbounds nuw i8, ptr %0, i64 4028
  %35 = load i32, ptr %34, align 4, !tbaa !59
  %.not22 = icmp eq i32 %35, 0
  %36 = select i1 %.not22, ptr @.str.2, ptr @.str.7
  %37 = getelementptr inbounds nuw i8, ptr %0, i64 4032
  %38 = load i32, ptr %37, align 8, !tbaa !60
  %.not23 = icmp eq i32 %38, 0
  %39 = select i1 %.not23, ptr @.str.2, ptr @.str.8
  %40 = getelementptr inbounds nuw i8, ptr %0, i64 4036
  %41 = load i32, ptr %40, align 4, !tbaa !61
  %.not24 = icmp eq i32 %41, 0
  %42 = select i1 %.not24, ptr @.str.2, ptr @.str.9
  %43 = getelementptr inbounds nuw i8, ptr %0, i64 4024
  %44 = load i32, ptr %43, align 8, !tbaa !62
  %.not25 = icmp eq i32 %44, 0
  %45 = select i1 %.not25, ptr @.str.2, ptr @.str.10
  %46 = load ptr, ptr %2, align 8, !tbaa !4
  %47 = getelementptr inbounds nuw i8, ptr %46, i64 100
  %48 = load i32, ptr %47, align 4, !tbaa !63
  %49 = getelementptr inbounds nuw i8, ptr %46, i64 104
  %50 = load i32, ptr %49, align 4, !tbaa !64
  tail call void (ptr, i32, ptr, ...) @av_log(ptr noundef nonnull %3, i32 noundef 48, ptr noundef nonnull @.str, i32 noundef %9, i32 noundef %13, i32 noundef %15, i32 noundef %18, ptr noundef nonnull %21, ptr noundef nonnull %24, ptr noundef nonnull %27, ptr noundef nonnull %30, ptr noundef nonnull %33, ptr noundef nonnull %36, ptr noundef nonnull %39, ptr noundef nonnull %42, ptr noundef nonnull %45, i32 noundef %48, i32 noundef %50) #12
  br label %51

51:                                               ; preds = %7, %1
  ret void
}